target datalayout = "e-m:e-p270:32:32-p271:32:32-p272:64:64-i64:64-i128:128-f80:128-n8:16:32:64-S128"
target triple = "x86_64-pc-linux-gnu"

@proto_tpkt_ptr = internal global ptr null, align 8
@g_ascii_table = external constant ptr, align 8

; Function Attrs: null_pointer_is_valid sspstrong uwtable
define hidden zeroext i16 @is_asciitpkt(ptr noundef %0) #0 {
  %2 = alloca i16, align 2
  %3 = alloca ptr, align 8
  %4 = alloca i16, align 2
  %5 = alloca i32, align 4
  store ptr %0, ptr %3, align 8
  call void @llvm.lifetime.start.p0(i64 2, ptr %4) #6
  %6 = load ptr, ptr @proto_tpkt_ptr, align 8
  %7 = call zeroext i1 @proto_is_protocol_enabled(ptr noundef %6)
  br i1 %7, label %9, label %8

8:                                                ; preds = %1
  store i16 -1, ptr %2, align 2
  store i32 1, ptr %5, align 4
  br label %36

9:                                                ; preds = %1
  %10 = load ptr, ptr %3, align 8
  %11 = call zeroext i1 @tvb_bytes_exist(ptr noundef %10, i32 noundef 0, i32 noundef 8)
  br i1 %11, label %13, label %12

12:                                               ; preds = %9
  store i16 -1, ptr %2, align 2
  store i32 1, ptr %5, align 4
  br label %36

13:                                               ; preds = %9
  store i16 0, ptr %4, align 2
  br label %14

14:                                               ; preds = %32, %13
  %15 = load i16, ptr %4, align 2
  %16 = zext i16 %15 to i32
  %17 = icmp sle i32 %16, 7
  br i1 %17, label %18, label %35

18:                                               ; preds = %14
  %19 = load ptr, ptr @g_ascii_table, align 8
  %20 = load ptr, ptr %3, align 8
  %21 = load i16, ptr %4, align 2
  %22 = zext i16 %21 to i32
  %23 = call zeroext i8 @tvb_get_uint8(ptr noundef %20, i32 noundef %22)
  %24 = zext i8 %23 to i64
  %25 = getelementptr i16, ptr %19, i64 %24
  %26 = load i16, ptr %25, align 2
  %27 = zext i16 %26 to i32
  %28 = and i32 %27, 1
  %29 = icmp ne i32 %28, 0
  br i1 %29, label %31, label %30

30:                                               ; preds = %18
  store i16 0, ptr %2, align 2
  store i32 1, ptr %5, align 4
  br label %36

31:                                               ; preds = %18
  br label %32

32:                                               ; preds = %31
  %33 = load i16, ptr %4, align 2
  %34 = add i16 %33, 1
  store i16 %34, ptr %4, align 2
  br label %14, !llvm.loop !6

35:                                               ; preds = %14
  store i16 1, ptr %2, align 2
  store i32 1, ptr %5, align 4
  br label %36

36:                                               ; preds = %35, %30, %12, %8
  call void @llvm.lifetime.end.p0(i64 2, ptr %4) #6
  %37 = load i16, ptr %2, align 2
  ret i16 %37
}