; Function Attrs: null_pointer_is_valid sspstrong uwtable
define hidden zeroext range(i16 -1, 2) i16 @is_asciitpkt(ptr noundef %0) local_unnamed_addr #0 {
  %2 = load ptr, ptr @proto_tpkt_ptr, align 8
  %3 = tail call zeroext i1 @proto_is_protocol_enabled(ptr noundef %2)
  br i1 %3, label %4, label %.loopexit

4:                                                ; preds = %1
  %5 = tail call zeroext i1 @tvb_bytes_exist(ptr noundef %0, i32 noundef 0, i32 noundef 8)
  br i1 %5, label %.preheader, label %.loopexit

.preheader:                                       ; preds = %4
  %6 = load ptr, ptr @g_ascii_table, align 8
  br label %8

7:                                                ; preds = %8
  %indvars.iv.next = add nuw nsw i32 %indvars.iv, 1
  %exitcond.not = icmp eq i32 %indvars.iv.next, 8
  br i1 %exitcond.not, label %.loopexit, label %8, !llvm.loop !6

8:                                                ; preds = %.preheader, %7
  %indvars.iv = phi i32 [ 0, %.preheader ], [ %indvars.iv.next, %7 ]
  %9 = tail call zeroext i8 @tvb_get_uint8(ptr noundef %0, i32 noundef %indvars.iv)
  %10 = zext i8 %9 to i64
  %11 = getelementptr i16, ptr %6, i64 %10
  %12 = load i16, ptr %11, align 2
  %13 = and i16 %12, 1
  %.not = icmp eq i16 %13, 0
  br i1 %.not, label %.loopexit, label %7

.loopexit:                                        ; preds = %7, %8, %4, %1
  %.05 = phi i16 [ -1, %1 ], [ -1, %4 ], [ 1, %7 ], [ 0, %8 ]
  ret i16 %.05
}